; Function Attrs: nounwind uwtable
define ptr @l_Lean_unresolveNameGlobal___at_Lean_unresolveNameGlobalAvoidingLocals___spec__1___rarg___lambda__3(ptr noundef %0, ptr noundef %1, ptr noundef %2, ptr noundef %3, ptr noundef %4, i8 noundef zeroext %5, ptr readnone captures(none) %6) local_unnamed_addr #1 {
  %8 = getelementptr inbounds nuw i8, ptr %0, i64 16
  %9 = load ptr, ptr %8, align 8, !tbaa !9
  %10 = ptrtoint ptr %9 to i64
  %11 = and i64 %10, 1
  %.not = icmp eq i64 %11, 0
  br i1 %.not, label %12, label %lean_inc.exit24

12:                                               ; preds = %7
  %.val.i = load i32, ptr %9, align 4, !tbaa !4
  %13 = icmp sgt i32 %.val.i, 0
  br i1 %13, label %14, label %16, !prof !11

14:                                               ; preds = %12
  %15 = add nuw i32 %.val.i, 1
  store i32 %15, ptr %9, align 4, !tbaa !4
  br label %lean_inc.exit24

16:                                               ; preds = %12
  %.not.i = icmp eq i32 %.val.i, 0
  br i1 %.not.i, label %lean_inc.exit24, label %17

17:                                               ; preds = %16
  tail call void @lean_inc_ref_cold(ptr noundef nonnull %9) #6
  br label %lean_inc.exit24

lean_inc.exit24:                                  ; preds = %17, %16, %14, %7
  %18 = getelementptr inbounds nuw i8, ptr %1, i64 8
  %19 = load ptr, ptr %18, align 8, !tbaa !9
  %20 = ptrtoint ptr %19 to i64
  %21 = and i64 %20, 1
  %.not31 = icmp eq i64 %21, 0
  br i1 %.not31, label %22, label %lean_inc.exit23

22:                                               ; preds = %lean_inc.exit24
  %.val.i25 = load i32, ptr %19, align 4, !tbaa !4
  %23 = icmp sgt i32 %.val.i25, 0
  br i1 %23, label %24, label %26, !prof !11

24:                                               ; preds = %22
  %25 = add nuw i32 %.val.i25, 1
  store i32 %25, ptr %19, align 4, !tbaa !4
  br label %lean_inc.exit23

26:                                               ; preds = %22
  %.not.i26 = icmp eq i32 %.val.i25, 0
  br i1 %.not.i26, label %lean_inc.exit23, label %27

27:                                               ; preds = %26
  tail call void @lean_inc_ref_cold(ptr noundef nonnull %19) #6
  br label %lean_inc.exit23

lean_inc.exit23:                                  ; preds = %27, %26, %24, %lean_inc.exit24
  br i1 %.not, label %28, label %lean_inc.exit

28:                                               ; preds = %lean_inc.exit23
  %.val.i28 = load i32, ptr %9, align 4, !tbaa !4
  %29 = icmp sgt i32 %.val.i28, 0
  br i1 %29, label %30, label %32, !prof !11

30:                                               ; preds = %28
  %31 = add nuw i32 %.val.i28, 1
  store i32 %31, ptr %9, align 4, !tbaa !4
  br label %lean_inc.exit

32:                                               ; preds = %28
  %.not.i29 = icmp eq i32 %.val.i28, 0
  br i1 %.not.i29, label %lean_inc.exit, label %33

33:                                               ; preds = %32
  tail call void @lean_inc_ref_cold(ptr noundef nonnull %9) #6
  br label %lean_inc.exit

lean_inc.exit:                                    ; preds = %33, %32, %30, %lean_inc.exit23
  tail call void @lean_inc_heartbeat() #6
  %34 = tail call noalias ptr @mi_malloc_small(i64 noundef 80) #6
  %35 = icmp eq ptr %34, null
  br i1 %35, label %36, label %lean_alloc_closure.exit

36:                                               ; preds = %lean_inc.exit
  tail call void @lean_internal_panic_out_of_memory() #7
  unreachable

lean_alloc_closure.exit:                          ; preds = %lean_inc.exit
  %37 = zext i8 %5 to i64
  %38 = shl nuw nsw i64 %37, 1
  %39 = or disjoint i64 %38, 1
  %40 = inttoptr i64 %39 to ptr
  %41 = getelementptr inbounds nuw i8, ptr %34, i64 4
  store i32 1, ptr %34, align 4, !tbaa !4
  store i32 -184549296, ptr %41, align 4
  %42 = getelementptr inbounds nuw i8, ptr %34, i64 8
  store ptr @l_Lean_unresolveNameGlobal___at_Lean_unresolveNameGlobalAvoidingLocals___spec__1___rarg___lambda__2___boxed, ptr %42, align 8, !tbaa !9
  %43 = getelementptr inbounds nuw i8, ptr %34, i64 16
  store i16 8, ptr %43, align 8, !tbaa !14
  %44 = getelementptr inbounds nuw i8, ptr %34, i64 18
  store i16 7, ptr %44, align 2, !tbaa !14
  %45 = getelementptr inbounds nuw i8, ptr %34, i64 24
  store ptr %2, ptr %45, align 8, !tbaa !9
  %46 = getelementptr inbounds nuw i8, ptr %34, i64 32
  store ptr %0, ptr %46, align 8, !tbaa !9
  %47 = getelementptr inbounds nuw i8, ptr %34, i64 40
  store ptr %3, ptr %47, align 8, !tbaa !9
  %48 = getelementptr inbounds nuw i8, ptr %34, i64 48
  store ptr %1, ptr %48, align 8, !tbaa !9
  %49 = getelementptr inbounds nuw i8, ptr %34, i64 56
  store ptr %4, ptr %49, align 8, !tbaa !9
  %50 = getelementptr inbounds nuw i8, ptr %34, i64 64
  store ptr %9, ptr %50, align 8, !tbaa !9
  %51 = getelementptr inbounds nuw i8, ptr %34, i64 72
  store ptr %40, ptr %51, align 8, !tbaa !9
  %52 = tail call ptr @lean_apply_4(ptr noundef %9, ptr noundef nonnull inttoptr (i64 1 to ptr), ptr noundef nonnull inttoptr (i64 1 to ptr), ptr noundef %19, ptr noundef nonnull %34) #6
  ret ptr %52
}